target datalayout = "e-m:e-p270:32:32-p271:32:32-p272:64:64-i64:64-i128:128-f80:128-n8:16:32:64-S128"
target triple = "x86_64-pc-linux-gnu"

%struct.archive_cryptor = type { ptr, ptr, ptr, ptr, ptr, ptr, ptr }
%struct.archive_hmac = type { ptr, ptr, ptr, ptr }
%struct.IPpmd8 = type { ptr, ptr, ptr, ptr, ptr, ptr }
%struct.archive_read = type { %struct.archive, ptr, i32, i64, i64, %struct.archive_read_client, [16 x %struct.archive_read_filter_bidder], ptr, i32, i64, i32, i32, [16 x %struct.archive_format_descriptor], ptr, ptr, ptr, %struct.anon }
%struct.archive = type { i32, i32, ptr, i32, ptr, i32, i32, ptr, %struct.archive_string, ptr, i32, i32, ptr, ptr, i64, i64, i64, i8, i64 }
%struct.archive_string = type { ptr, i64, i64 }
%struct.archive_read_client = type { ptr, ptr, ptr, ptr, ptr, ptr, i32, i32, i64, ptr }
%struct.archive_read_filter_bidder = type { ptr, ptr, ptr }
%struct.archive_format_descriptor = type { ptr, ptr, ptr, ptr, ptr, ptr, ptr, ptr, ptr, ptr, ptr }
%struct.anon = type { ptr, ptr, i32, ptr, ptr }
%struct.zip = type { %struct.archive_string, i64, i64, i64, i64, i32, ptr, %struct.archive_rb_tree, %struct.archive_rb_tree, i64, ptr, i64, i64, i64, i64, ptr, i8, i8, i8, ptr, i64, %struct.z_stream_s, i8, %struct.lzma_stream, i8, %struct.bz_stream, i8, ptr, i8, %struct.IByteIn, i64, %struct.CPpmd8, i8, i8, ptr, ptr, ptr, i32, i32, i8, ptr, ptr, i64, i64, i64, %struct.trad_enc_ctx, i8, %struct.archive_crypto_ctx, i8, ptr, i8, i32, i32, i32, i32, i32, i32, i32, ptr, ptr, ptr }
%struct.archive_rb_tree = type { ptr, ptr }
%struct.z_stream_s = type { ptr, i32, i64, ptr, i32, i64, ptr, ptr, ptr, ptr, ptr, i32, i64, i64 }
%struct.lzma_stream = type { ptr, i64, i64, ptr, i64, i64, ptr, ptr, ptr, ptr, ptr, ptr, i64, i64, i64, i64, i32, i32 }
%struct.bz_stream = type { ptr, i32, i32, i32, ptr, i32, i32, i32, ptr, ptr, ptr, ptr }
%struct.IByteIn = type { ptr, ptr }
%struct.CPpmd8 = type { ptr, ptr, ptr, i32, i32, i32, i32, i32, i32, i32, i32, ptr, ptr, ptr, ptr, ptr, i32, i32, i32, i32, i32, %union.anon, [38 x i8], [128 x i8], [38 x i32], [38 x i32], [256 x i8], [260 x i8], %struct.CPpmd_See, [24 x [32 x %struct.CPpmd_See]], [25 x [64 x i16]] }
%union.anon = type { ptr }
%struct.CPpmd_See = type { i16, i8, i8 }
%struct.trad_enc_ctx = type { [3 x i32] }
%struct.archive_crypto_ctx = type { ptr, ptr, [32 x i8], i32, [16 x i8], [16 x i8], i32 }
%struct.zip_entry = type { %struct.archive_rb_node, ptr, i64, i64, i64, i64, i64, %struct.archive_string, i64, i64, i64, i32, i16, i16, i8, i8, i8, i8, %struct.anon.0 }
%struct.archive_rb_node = type { [2 x ptr], i64 }
%struct.anon.0 = type { i32, i32, i8 }

@__archive_cryptor = external constant %struct.archive_cryptor, align 8
@__archive_hmac = external constant %struct.archive_hmac, align 8
@__archive_ppmd8_functions = external constant %struct.IPpmd8, align 8

; Function Attrs: nounwind uwtable
define internal i32 @archive_read_format_zip_cleanup(ptr noundef %0) #0 {
  %2 = alloca ptr, align 8
  %3 = alloca ptr, align 8
  %4 = alloca ptr, align 8
  %5 = alloca ptr, align 8
  store ptr %0, ptr %2, align 8, !tbaa !11
  call void @llvm.lifetime.start.p0(i64 8, ptr %3) #11
  call void @llvm.lifetime.start.p0(i64 8, ptr %4) #11
  call void @llvm.lifetime.start.p0(i64 8, ptr %5) #11
  %6 = load ptr, ptr %2, align 8, !tbaa !11
  %7 = getelementptr inbounds nuw %struct.archive_read, ptr %6, i32 0, i32 13
  %8 = load ptr, ptr %7, align 8, !tbaa !47
  %9 = getelementptr inbounds nuw %struct.archive_format_descriptor, ptr %8, i32 0, i32 0
  %10 = load ptr, ptr %9, align 8, !tbaa !60
  store ptr %10, ptr %3, align 8, !tbaa !13
  %11 = load ptr, ptr %3, align 8, !tbaa !13
  %12 = getelementptr inbounds nuw %struct.zip, ptr %11, i32 0, i32 22
  %13 = load i8, ptr %12, align 8, !tbaa !102
  %14 = icmp ne i8 %13, 0
  br i1 %14, label %15, label %19

15:                                               ; preds = %1
  %16 = load ptr, ptr %3, align 8, !tbaa !13
  %17 = getelementptr inbounds nuw %struct.zip, ptr %16, i32 0, i32 21
  %18 = call i32 @cm_zlib_inflateEnd(ptr noundef %17)
  br label %19

19:                                               ; preds = %15, %1
  %20 = load ptr, ptr %3, align 8, !tbaa !13
  %21 = getelementptr inbounds nuw %struct.zip, ptr %20, i32 0, i32 24
  %22 = load i8, ptr %21, align 8, !tbaa !103
  %23 = icmp ne i8 %22, 0
  br i1 %23, label %24, label %27

24:                                               ; preds = %19
  %25 = load ptr, ptr %3, align 8, !tbaa !13
  %26 = getelementptr inbounds nuw %struct.zip, ptr %25, i32 0, i32 23
  call void @lzma_end(ptr noundef %26) #11
  br label %27

27:                                               ; preds = %24, %19
  %28 = load ptr, ptr %3, align 8, !tbaa !13
  %29 = getelementptr inbounds nuw %struct.zip, ptr %28, i32 0, i32 26
  %30 = load i8, ptr %29, align 8, !tbaa !104
  %31 = icmp ne i8 %30, 0
  br i1 %31, label %32, label %36

32:                                               ; preds = %27
  %33 = load ptr, ptr %3, align 8, !tbaa !13
  %34 = getelementptr inbounds nuw %struct.zip, ptr %33, i32 0, i32 25
  %35 = call i32 @BZ2_bzDecompressEnd(ptr noundef %34)
  br label %36

36:                                               ; preds = %32, %27
  %37 = load ptr, ptr %3, align 8, !tbaa !13
  %38 = getelementptr inbounds nuw %struct.zip, ptr %37, i32 0, i32 28
  %39 = load i8, ptr %38, align 8, !tbaa !105
  %40 = icmp ne i8 %39, 0
  br i1 %40, label %41, label %46

41:                                               ; preds = %36
  %42 = load ptr, ptr %3, align 8, !tbaa !13
  %43 = getelementptr inbounds nuw %struct.zip, ptr %42, i32 0, i32 27
  %44 = load ptr, ptr %43, align 8, !tbaa !106
  %45 = call i64 @ZSTD_freeDStream(ptr noundef %44)
  br label %46

46:                                               ; preds = %41, %36
  %47 = load ptr, ptr %3, align 8, !tbaa !13
  %48 = getelementptr inbounds nuw %struct.zip, ptr %47, i32 0, i32 19
  %49 = load ptr, ptr %48, align 8, !tbaa !107
  call void @free(ptr noundef %49) #11
  %50 = load ptr, ptr %3, align 8, !tbaa !13
  %51 = getelementptr inbounds nuw %struct.zip, ptr %50, i32 0, i32 32
  %52 = load i8, ptr %51, align 8, !tbaa !108
  %53 = icmp ne i8 %52, 0
  br i1 %53, label %54, label %58

54:                                               ; preds = %46
  %55 = load ptr, ptr getelementptr inbounds nuw (%struct.IPpmd8, ptr @__archive_ppmd8_functions, i32 0, i32 2), align 8, !tbaa !109
  %56 = load ptr, ptr %3, align 8, !tbaa !13
  %57 = getelementptr inbounds nuw %struct.zip, ptr %56, i32 0, i32 31
  call void %55(ptr noundef %57)
  br label %58

58:                                               ; preds = %54, %46
  %59 = load ptr, ptr %3, align 8, !tbaa !13
  %60 = getelementptr inbounds nuw %struct.zip, ptr %59, i32 0, i32 6
  %61 = load ptr, ptr %60, align 8, !tbaa !69
  %62 = icmp ne ptr %61, null
  br i1 %62, label %63, label %79

63:                                               ; preds = %58
  %64 = load ptr, ptr %3, align 8, !tbaa !13
  %65 = getelementptr inbounds nuw %struct.zip, ptr %64, i32 0, i32 6
  %66 = load ptr, ptr %65, align 8, !tbaa !69
  store ptr %66, ptr %4, align 8, !tbaa !111
  br label %67

67:                                               ; preds = %70, %63
  %68 = load ptr, ptr %4, align 8, !tbaa !111
  %69 = icmp ne ptr %68, null
  br i1 %69, label %70, label %78

70:                                               ; preds = %67
  %71 = load ptr, ptr %4, align 8, !tbaa !111
  %72 = getelementptr inbounds nuw %struct.zip_entry, ptr %71, i32 0, i32 1
  %73 = load ptr, ptr %72, align 8, !tbaa !112
  store ptr %73, ptr %5, align 8, !tbaa !111
  %74 = load ptr, ptr %4, align 8, !tbaa !111
  %75 = getelementptr inbounds nuw %struct.zip_entry, ptr %74, i32 0, i32 7
  call void @archive_string_free(ptr noundef %75)
  %76 = load ptr, ptr %4, align 8, !tbaa !111
  call void @free(ptr noundef %76) #11
  %77 = load ptr, ptr %5, align 8, !tbaa !111
  store ptr %77, ptr %4, align 8, !tbaa !111
  br label %67, !llvm.loop !113

78:                                               ; preds = %67
  br label %79

79:                                               ; preds = %78, %58
  %80 = load ptr, ptr %3, align 8, !tbaa !13
  %81 = getelementptr inbounds nuw %struct.zip, ptr %80, i32 0, i32 40
  %82 = load ptr, ptr %81, align 8, !tbaa !114
  call void @free(ptr noundef %82) #11
  %83 = load ptr, ptr %3, align 8, !tbaa !13
  %84 = getelementptr inbounds nuw %struct.zip, ptr %83, i32 0, i32 48
  %85 = load i8, ptr %84, align 8, !tbaa !71
  %86 = icmp ne i8 %85, 0
  br i1 %86, label %87, label %92

87:                                               ; preds = %79
  %88 = load ptr, ptr getelementptr inbounds nuw (%struct.archive_cryptor, ptr @__archive_cryptor, i32 0, i32 3), align 8, !tbaa !72
  %89 = load ptr, ptr %3, align 8, !tbaa !13
  %90 = getelementptr inbounds nuw %struct.zip, ptr %89, i32 0, i32 47
  %91 = call i32 %88(ptr noundef %90)
  br label %92

92:                                               ; preds = %87, %79
  %93 = load ptr, ptr %3, align 8, !tbaa !13
  %94 = getelementptr inbounds nuw %struct.zip, ptr %93, i32 0, i32 50
  %95 = load i8, ptr %94, align 8, !tbaa !74
  %96 = icmp ne i8 %95, 0
  br i1 %96, label %97, label %101

97:                                               ; preds = %92
  %98 = load ptr, ptr getelementptr inbounds nuw (%struct.archive_hmac, ptr @__archive_hmac, i32 0, i32 3), align 8, !tbaa !75
  %99 = load ptr, ptr %3, align 8, !tbaa !13
  %100 = getelementptr inbounds nuw %struct.zip, ptr %99, i32 0, i32 49
  call void %98(ptr noundef %100)
  br label %101

101:                                              ; preds = %97, %92
  %102 = load ptr, ptr %3, align 8, !tbaa !13
  %103 = getelementptr inbounds nuw %struct.zip, ptr %102, i32 0, i32 58
  %104 = load ptr, ptr %103, align 8, !tbaa !115
  call void @free(ptr noundef %104) #11
  %105 = load ptr, ptr %3, align 8, !tbaa !13
  %106 = getelementptr inbounds nuw %struct.zip, ptr %105, i32 0, i32 59
  %107 = load ptr, ptr %106, align 8, !tbaa !116
  call void @free(ptr noundef %107) #11
  %108 = load ptr, ptr %3, align 8, !tbaa !13
  %109 = getelementptr inbounds nuw %struct.zip, ptr %108, i32 0, i32 60
  %110 = load ptr, ptr %109, align 8, !tbaa !117
  call void @free(ptr noundef %110) #11
  %111 = load ptr, ptr %3, align 8, !tbaa !13
  %112 = getelementptr inbounds nuw %struct.zip, ptr %111, i32 0, i32 0
  call void @archive_string_free(ptr noundef %112)
  %113 = load ptr, ptr %3, align 8, !tbaa !13
  call void @free(ptr noundef %113) #11
  %114 = load ptr, ptr %2, align 8, !tbaa !11
  %115 = getelementptr inbounds nuw %struct.archive_read, ptr %114, i32 0, i32 13
  %116 = load ptr, ptr %115, align 8, !tbaa !47
  %117 = getelementptr inbounds nuw %struct.archive_format_descriptor, ptr %116, i32 0, i32 0
  store ptr null, ptr %117, align 8, !tbaa !60
  call void @llvm.lifetime.end.p0(i64 8, ptr %5) #11
  call void @llvm.lifetime.end.p0(i64 8, ptr %4) #11
  call void @llvm.lifetime.end.p0(i64 8, ptr %3) #11
  ret i32 0
}