; Function Attrs: nounwind uwtable
define internal noundef i32 @archive_read_format_zip_cleanup(ptr noundef readonly captures(none) %0) #0 {
  %2 = getelementptr inbounds nuw i8, ptr %0, i64 2072
  %3 = load ptr, ptr %2, align 8, !tbaa !37
  %4 = load ptr, ptr %3, align 8, !tbaa !50
  %5 = getelementptr inbounds nuw i8, ptr %4, i64 296
  %6 = load i8, ptr %5, align 8, !tbaa !96
  %.not = icmp eq i8 %6, 0
  br i1 %.not, label %10, label %7

7:                                                ; preds = %1
  %8 = getelementptr inbounds nuw i8, ptr %4, i64 184
  %9 = tail call i32 @cm_zlib_inflateEnd(ptr noundef nonnull %8) #21
  br label %10

10:                                               ; preds = %7, %1
  %11 = getelementptr inbounds nuw i8, ptr %4, i64 440
  %12 = load i8, ptr %11, align 8, !tbaa !97
  %.not31 = icmp eq i8 %12, 0
  br i1 %.not31, label %15, label %13

13:                                               ; preds = %10
  %14 = getelementptr inbounds nuw i8, ptr %4, i64 304
  tail call void @lzma_end(ptr noundef nonnull %14) #21
  br label %15

15:                                               ; preds = %13, %10
  %16 = getelementptr inbounds nuw i8, ptr %4, i64 528
  %17 = load i8, ptr %16, align 8, !tbaa !98
  %.not32 = icmp eq i8 %17, 0
  br i1 %.not32, label %21, label %18

18:                                               ; preds = %15
  %19 = getelementptr inbounds nuw i8, ptr %4, i64 448
  %20 = tail call i32 @BZ2_bzDecompressEnd(ptr noundef nonnull %19) #21
  br label %21

21:                                               ; preds = %18, %15
  %22 = getelementptr inbounds nuw i8, ptr %4, i64 544
  %23 = load i8, ptr %22, align 8, !tbaa !99
  %.not33 = icmp eq i8 %23, 0
  br i1 %.not33, label %28, label %24

24:                                               ; preds = %21
  %25 = getelementptr inbounds nuw i8, ptr %4, i64 536
  %26 = load ptr, ptr %25, align 8, !tbaa !100
  %27 = tail call i64 @ZSTD_freeDStream(ptr noundef %26) #21
  br label %28

28:                                               ; preds = %24, %21
  %29 = getelementptr inbounds nuw i8, ptr %4, i64 168
  %30 = load ptr, ptr %29, align 8, !tbaa !101
  tail call void @free(ptr noundef %30) #21
  %31 = getelementptr inbounds nuw i8, ptr %4, i64 7968
  %32 = load i8, ptr %31, align 8, !tbaa !102
  %.not34 = icmp eq i8 %32, 0
  br i1 %.not34, label %36, label %33

33:                                               ; preds = %28
  %34 = load ptr, ptr getelementptr inbounds nuw (i8, ptr @__archive_ppmd8_functions, i64 16), align 8, !tbaa !103
  %35 = getelementptr inbounds nuw i8, ptr %4, i64 576
  tail call void %34(ptr noundef nonnull %35) #21
  br label %36

36:                                               ; preds = %33, %28
  %37 = getelementptr inbounds nuw i8, ptr %4, i64 64
  %38 = load ptr, ptr %37, align 8, !tbaa !59
  %.not35 = icmp eq ptr %38, null
  br i1 %.not35, label %.loopexit, label %.preheader

.preheader:                                       ; preds = %36, %.preheader
  %.039 = phi ptr [ %40, %.preheader ], [ %38, %36 ]
  %39 = getelementptr inbounds nuw i8, ptr %.039, i64 24
  %40 = load ptr, ptr %39, align 8, !tbaa !105
  %41 = getelementptr inbounds nuw i8, ptr %.039, i64 72
  tail call void @archive_string_free(ptr noundef nonnull %41) #21
  tail call void @free(ptr noundef nonnull %.039) #21
  %.not36 = icmp eq ptr %40, null
  br i1 %.not36, label %.loopexit, label %.preheader, !llvm.loop !106

.loopexit:                                        ; preds = %.preheader, %36
  %42 = getelementptr inbounds nuw i8, ptr %4, i64 8016
  %43 = load ptr, ptr %42, align 8, !tbaa !107
  tail call void @free(ptr noundef %43) #21
  %44 = getelementptr inbounds nuw i8, ptr %4, i64 8160
  %45 = load i8, ptr %44, align 8, !tbaa !61
  %.not37 = icmp eq i8 %45, 0
  br i1 %.not37, label %50, label %46

46:                                               ; preds = %.loopexit
  %47 = load ptr, ptr getelementptr inbounds nuw (i8, ptr @__archive_cryptor, i64 24), align 8, !tbaa !62
  %48 = getelementptr inbounds nuw i8, ptr %4, i64 8072
  %49 = tail call i32 %47(ptr noundef nonnull %48) #21
  br label %50

50:                                               ; preds = %46, %.loopexit
  %51 = getelementptr inbounds nuw i8, ptr %4, i64 8176
  %52 = load i8, ptr %51, align 8, !tbaa !64
  %.not38 = icmp eq i8 %52, 0
  br i1 %.not38, label %56, label %53

53:                                               ; preds = %50
  %54 = load ptr, ptr getelementptr inbounds nuw (i8, ptr @__archive_hmac, i64 24), align 8, !tbaa !65
  %55 = getelementptr inbounds nuw i8, ptr %4, i64 8168
  tail call void %54(ptr noundef nonnull %55) #21
  br label %56

56:                                               ; preds = %53, %50
  %57 = getelementptr inbounds nuw i8, ptr %4, i64 8208
  %58 = load ptr, ptr %57, align 8, !tbaa !108
  tail call void @free(ptr noundef %58) #21
  %59 = getelementptr inbounds nuw i8, ptr %4, i64 8216
  %60 = load ptr, ptr %59, align 8, !tbaa !109
  tail call void @free(ptr noundef %60) #21
  %61 = getelementptr inbounds nuw i8, ptr %4, i64 8224
  %62 = load ptr, ptr %61, align 8, !tbaa !110
  tail call void @free(ptr noundef %62) #21
  tail call void @archive_string_free(ptr noundef nonnull %4) #21
  tail call void @free(ptr noundef nonnull %4) #21
  %63 = load ptr, ptr %2, align 8, !tbaa !37
  store ptr null, ptr %63, align 8, !tbaa !50
  ret i32 0
}